target datalayout = "e-m:e-p270:32:32-p271:32:32-p272:64:64-i64:64-i128:128-f80:128-n8:16:32:64-S128"
target triple = "x86_64-pc-linux-gnu"

; Function Attrs: mustprogress nounwind uwtable
define hidden void @_ZN2cv4epnp12copy_R_and_tEPA3_KdPS1_PA3_dPd(ptr noundef nonnull align 8 dereferenceable(352) %0, ptr noundef %1, ptr noundef %2, ptr noundef %3, ptr noundef %4) #5 align 2 {
  %6 = alloca ptr, align 8
  %7 = alloca ptr, align 8
  %8 = alloca ptr, align 8
  %9 = alloca ptr, align 8
  %10 = alloca ptr, align 8
  %11 = alloca i32, align 4
  %12 = alloca i32, align 4
  %13 = alloca i32, align 4
  store ptr %0, ptr %6, align 8, !tbaa !3
  store ptr %1, ptr %7, align 8, !tbaa !83
  store ptr %2, ptr %8, align 8, !tbaa !83
  store ptr %3, ptr %9, align 8, !tbaa !83
  store ptr %4, ptr %10, align 8, !tbaa !83
  call void @llvm.lifetime.start.p0(i64 4, ptr %11) #3
  store i32 0, ptr %11, align 4, !tbaa !10
  br label %14

14:                                               ; preds = %52, %5
  %15 = load i32, ptr %11, align 4, !tbaa !10
  %16 = icmp slt i32 %15, 3
  br i1 %16, label %18, label %17

17:                                               ; preds = %14
  store i32 2, ptr %12, align 4
  call void @llvm.lifetime.end.p0(i64 4, ptr %11) #3
  br label %55

18:                                               ; preds = %14
  call void @llvm.lifetime.start.p0(i64 4, ptr %13) #3
  store i32 0, ptr %13, align 4, !tbaa !10
  br label %19

19:                                               ; preds = %39, %18
  %20 = load i32, ptr %13, align 4, !tbaa !10
  %21 = icmp slt i32 %20, 3
  br i1 %21, label %23, label %22

22:                                               ; preds = %19
  store i32 5, ptr %12, align 4
  call void @llvm.lifetime.end.p0(i64 4, ptr %13) #3
  br label %42

23:                                               ; preds = %19
  %24 = load ptr, ptr %7, align 8, !tbaa !83
  %25 = load i32, ptr %11, align 4, !tbaa !10
  %26 = sext i32 %25 to i64
  %27 = getelementptr inbounds [3 x double], ptr %24, i64 %26
  %28 = load i32, ptr %13, align 4, !tbaa !10
  %29 = sext i32 %28 to i64
  %30 = getelementptr inbounds [3 x double], ptr %27, i64 0, i64 %29
  %31 = load double, ptr %30, align 8, !tbaa !40
  %32 = load ptr, ptr %9, align 8, !tbaa !83
  %33 = load i32, ptr %11, align 4, !tbaa !10
  %34 = sext i32 %33 to i64
  %35 = getelementptr inbounds [3 x double], ptr %32, i64 %34
  %36 = load i32, ptr %13, align 4, !tbaa !10
  %37 = sext i32 %36 to i64
  %38 = getelementptr inbounds [3 x double], ptr %35, i64 0, i64 %37
  store double %31, ptr %38, align 8, !tbaa !40
  br label %39

39:                                               ; preds = %23
  %40 = load i32, ptr %13, align 4, !tbaa !10
  %41 = add nsw i32 %40, 1
  store i32 %41, ptr %13, align 4, !tbaa !10
  br label %19, !llvm.loop !106

42:                                               ; preds = %22
  %43 = load ptr, ptr %8, align 8, !tbaa !83
  %44 = load i32, ptr %11, align 4, !tbaa !10
  %45 = sext i32 %44 to i64
  %46 = getelementptr inbounds double, ptr %43, i64 %45
  %47 = load double, ptr %46, align 8, !tbaa !40
  %48 = load ptr, ptr %10, align 8, !tbaa !83
  %49 = load i32, ptr %11, align 4, !tbaa !10
  %50 = sext i32 %49 to i64
  %51 = getelementptr inbounds double, ptr %48, i64 %50
  store double %47, ptr %51, align 8, !tbaa !40
  br label %52

52:                                               ; preds = %42
  %53 = load i32, ptr %11, align 4, !tbaa !10
  %54 = add nsw i32 %53, 1
  store i32 %54, ptr %11, align 4, !tbaa !10
  br label %14, !llvm.loop !107

55:                                               ; preds = %17
  ret void
}