; Function Attrs: mustprogress nofree norecurse nosync nounwind memory(argmem: readwrite) uwtable
define hidden void @_ZN2cv4epnp12copy_R_and_tEPA3_KdPS1_PA3_dPd(ptr noundef nonnull readnone align 8 captures(none) dereferenceable(352) %0, ptr noundef readonly captures(none) %1, ptr noundef readonly captures(none) %2, ptr noundef writeonly captures(none) %3, ptr noundef writeonly captures(none) %4) local_unnamed_addr #11 align 2 {
  br label %.preheader

.preheader:                                       ; preds = %5, %7
  %indvars.iv18 = phi i64 [ 0, %5 ], [ %indvars.iv.next19, %7 ]
  br label %11

6:                                                ; preds = %7
  ret void

7:                                                ; preds = %11
  %8 = getelementptr inbounds nuw double, ptr %2, i64 %indvars.iv18
  %9 = load double, ptr %8, align 8, !tbaa !32
  %10 = getelementptr inbounds nuw double, ptr %4, i64 %indvars.iv18
  store double %9, ptr %10, align 8, !tbaa !32
  %indvars.iv.next19 = add nuw nsw i64 %indvars.iv18, 1
  %exitcond21.not = icmp eq i64 %indvars.iv.next19, 3
  br i1 %exitcond21.not, label %6, label %.preheader, !llvm.loop !160

11:                                               ; preds = %.preheader, %11
  %indvars.iv = phi i64 [ 0, %.preheader ], [ %indvars.iv.next, %11 ]
  %12 = getelementptr inbounds nuw [3 x double], ptr %1, i64 %indvars.iv18, i64 %indvars.iv
  %13 = load double, ptr %12, align 8, !tbaa !32
  %14 = getelementptr inbounds nuw [3 x double], ptr %3, i64 %indvars.iv18, i64 %indvars.iv
  store double %13, ptr %14, align 8, !tbaa !32
  %indvars.iv.next = add nuw nsw i64 %indvars.iv, 1
  %exitcond.not = icmp eq i64 %indvars.iv.next, 3
  br i1 %exitcond.not, label %7, label %11, !llvm.loop !161
}